; ModuleID = '46/593.c'
source_filename = "46/593.c"
target datalayout = "e-m:e-p270:32:32-p271:32:32-p272:64:64-i64:64-f80:128-n8:16:32:64-S128"
target triple = "x86_64-pc-linux-gnu"

@.str = private unnamed_addr constant [5 x i8] c"%d%d\00", align 1
@.str.1 = private unnamed_addr constant [3 x i8] c"%d\00", align 1
@.str.2 = private unnamed_addr constant [4 x i8] c"%d\0A\00", align 1

; Function Attrs: noinline nounwind uwtable
define dso_local void @main() #0 {
  %1 = alloca i32, align 4
  %2 = alloca i32, align 4
  %3 = alloca i32, align 4
  %4 = alloca i32, align 4
  %5 = alloca i32, align 4
  %6 = alloca [100 x [100 x i32]], align 16
  %7 = alloca i32, align 4
  store i32 0, i32* %5, align 4
  %8 = call i32 (i8*, ...) @__isoc99_scanf(i8* getelementptr inbounds ([5 x i8], [5 x i8]* @.str, i64 0, i64 0), i32* %3, i32* %4)
  store i32 0, i32* %1, align 4
  br label %9

9:                                                ; preds = %30, %0
  %10 = load i32, i32* %1, align 4
  %11 = load i32, i32* %3, align 4
  %12 = icmp slt i32 %10, %11
  br i1 %12, label %13, label %33

13:                                               ; preds = %9
  store i32 0, i32* %2, align 4
  br label %14

14:                                               ; preds = %26, %13
  %15 = load i32, i32* %2, align 4
  %16 = load i32, i32* %4, align 4
  %17 = icmp slt i32 %15, %16
  br i1 %17, label %18, label %29

18:                                               ; preds = %14
  %19 = load i32, i32* %1, align 4
  %20 = sext i32 %19 to i64
  %21 = getelementptr inbounds [100 x [100 x i32]], [100 x [100 x i32]]* %6, i64 0, i64 %20
  %22 = load i32, i32* %2, align 4
  %23 = sext i32 %22 to i64
  %24 = getelementptr inbounds [100 x i32], [100 x i32]* %21, i64 0, i64 %23
  %25 = call i32 (i8*, ...) @__isoc99_scanf(i8* getelementptr inbounds ([3 x i8], [3 x i8]* @.str.1, i64 0, i64 0), i32* %24)
  br label %26

26:                                               ; preds = %18
  %27 = load i32, i32* %2, align 4
  %28 = add nsw i32 %27, 1
  store i32 %28, i32* %2, align 4
  br label %14

29:                                               ; preds = %14
  br label %30

30:                                               ; preds = %29
  %31 = load i32, i32* %1, align 4
  %32 = add nsw i32 %31, 1
  store i32 %32, i32* %1, align 4
  br label %9

33:                                               ; preds = %9
  %34 = load i32, i32* %3, align 4
  %35 = load i32, i32* %4, align 4
  %36 = mul nsw i32 %34, %35
  store i32 %36, i32* %7, align 4
  store i32 0, i32* %1, align 4
  br label %37

37:                                               ; preds = %178, %33
  %38 = load i32, i32* %1, align 4
  store i32 %38, i32* %2, align 4
  br label %39

39:                                               ; preds = %62, %37
  %40 = load i32, i32* %2, align 4
  %41 = load i32, i32* %4, align 4
  %42 = sub nsw i32 %41, 1
  %43 = load i32, i32* %1, align 4
  %44 = sub nsw i32 %42, %43
  %45 = icmp sle i32 %40, %44
  br i1 %45, label %46, label %65

46:                                               ; preds = %39
  %47 = load i32, i32* %1, align 4
  %48 = sext i32 %47 to i64
  %49 = getelementptr inbounds [100 x [100 x i32]], [100 x [100 x i32]]* %6, i64 0, i64 %48
  %50 = load i32, i32* %2, align 4
  %51 = sext i32 %50 to i64
  %52 = getelementptr inbounds [100 x i32], [100 x i32]* %49, i64 0, i64 %51
  %53 = load i32, i32* %52, align 4
  %54 = call i32 (i8*, ...) @printf(i8* getelementptr inbounds ([4 x i8], [4 x i8]* @.str.2, i64 0, i64 0), i32 %53)
  %55 = load i32, i32* %5, align 4
  %56 = add nsw i32 %55, 1
  store i32 %56, i32* %5, align 4
  %57 = load i32, i32* %5, align 4
  %58 = load i32, i32* %7, align 4
  %59 = icmp eq i32 %57, %58
  br i1 %59, label %60, label %61

60:                                               ; preds = %46
  br label %65

61:                                               ; preds = %46
  br label %62

62:                                               ; preds = %61
  %63 = load i32, i32* %2, align 4
  %64 = add nsw i32 %63, 1
  store i32 %64, i32* %2, align 4
  br label %39

65:                                               ; preds = %60, %39
  %66 = load i32, i32* %5, align 4
  %67 = load i32, i32* %7, align 4
  %68 = icmp eq i32 %66, %67
  br i1 %68, label %69, label %70

69:                                               ; preds = %65
  br label %181

70:                                               ; preds = %65
  %71 = load i32, i32* %1, align 4
  %72 = add nsw i32 %71, 1
  store i32 %72, i32* %2, align 4
  br label %73

73:                                               ; preds = %99, %70
  %74 = load i32, i32* %2, align 4
  %75 = load i32, i32* %3, align 4
  %76 = sub nsw i32 %75, 1
  %77 = load i32, i32* %1, align 4
  %78 = sub nsw i32 %76, %77
  %79 = icmp sle i32 %74, %78
  br i1 %79, label %80, label %102

80:                                               ; preds = %73
  %81 = load i32, i32* %2, align 4
  %82 = sext i32 %81 to i64
  %83 = getelementptr inbounds [100 x [100 x i32]], [100 x [100 x i32]]* %6, i64 0, i64 %82
  %84 = load i32, i32* %4, align 4
  %85 = load i32, i32* %1, align 4
  %86 = sub nsw i32 %84, %85
  %87 = sub nsw i32 %86, 1
  %88 = sext i32 %87 to i64
  %89 = getelementptr inbounds [100 x i32], [100 x i32]* %83, i64 0, i64 %88
  %90 = load i32, i32* %89, align 4
  %91 = call i32 (i8*, ...) @printf(i8* getelementptr inbounds ([4 x i8], [4 x i8]* @.str.2, i64 0, i64 0), i32 %90)
  %92 = load i32, i32* %5, align 4
  %93 = add nsw i32 %92, 1
  store i32 %93, i32* %5, align 4
  %94 = load i32, i32* %5, align 4
  %95 = load i32, i32* %7, align 4
  %96 = icmp eq i32 %94, %95
  br i1 %96, label %97, label %98

97:                                               ; preds = %80
  br label %102

98:                                               ; preds = %80
  br label %99

99:                                               ; preds = %98
  %100 = load i32, i32* %2, align 4
  %101 = add nsw i32 %100, 1
  store i32 %101, i32* %2, align 4
  br label %73

102:                                              ; preds = %97, %73
  %103 = load i32, i32* %5, align 4
  %104 = load i32, i32* %7, align 4
  %105 = icmp eq i32 %103, %104
  br i1 %105, label %106, label %107

106:                                              ; preds = %102
  br label %181

107:                                              ; preds = %102
  %108 = load i32, i32* %4, align 4
  %109 = load i32, i32* %1, align 4
  %110 = sub nsw i32 %108, %109
  %111 = sub nsw i32 %110, 2
  store i32 %111, i32* %2, align 4
  br label %112

112:                                              ; preds = %135, %107
  %113 = load i32, i32* %2, align 4
  %114 = load i32, i32* %1, align 4
  %115 = icmp sge i32 %113, %114
  br i1 %115, label %116, label %138

116:                                              ; preds = %112
  %117 = load i32, i32* %3, align 4
  %118 = sub nsw i32 %117, 1
  %119 = load i32, i32* %1, align 4
  %120 = sub nsw i32 %118, %119
  %121 = sext i32 %120 to i64
  %122 = getelementptr inbounds [100 x [100 x i32]], [100 x [100 x i32]]* %6, i64 0, i64 %121
  %123 = load i32, i32* %2, align 4
  %124 = sext i32 %123 to i64
  %125 = getelementptr inbounds [100 x i32], [100 x i32]* %122, i64 0, i64 %124
  %126 = load i32, i32* %125, align 4
  %127 = call i32 (i8*, ...) @printf(i8* getelementptr inbounds ([4 x i8], [4 x i8]* @.str.2, i64 0, i64 0), i32 %126)
  %128 = load i32, i32* %5, align 4
  %129 = add nsw i32 %128, 1
  store i32 %129, i32* %5, align 4
  %130 = load i32, i32* %5, align 4
  %131 = load i32, i32* %7, align 4
  %132 = icmp eq i32 %130, %131
  br i1 %132, label %133, label %134

133:                                              ; preds = %116
  br label %138

134:                                              ; preds = %116
  br label %135

135:                                              ; preds = %134
  %136 = load i32, i32* %2, align 4
  %137 = add nsw i32 %136, -1
  store i32 %137, i32* %2, align 4
  br label %112

138:                                              ; preds = %133, %112
  %139 = load i32, i32* %5, align 4
  %140 = load i32, i32* %7, align 4
  %141 = icmp eq i32 %139, %140
  br i1 %141, label %142, label %143

142:                                              ; preds = %138
  br label %181

143:                                              ; preds = %138
  %144 = load i32, i32* %3, align 4
  %145 = load i32, i32* %1, align 4
  %146 = sub nsw i32 %144, %145
  %147 = sub nsw i32 %146, 2
  store i32 %147, i32* %2, align 4
  br label %148

148:                                              ; preds = %169, %143
  %149 = load i32, i32* %2, align 4
  %150 = load i32, i32* %1, align 4
  %151 = add nsw i32 %150, 1
  %152 = icmp sge i32 %149, %151
  br i1 %152, label %153, label %172

153:                                              ; preds = %148
  %154 = load i32, i32* %2, align 4
  %155 = sext i32 %154 to i64
  %156 = getelementptr inbounds [100 x [100 x i32]], [100 x [100 x i32]]* %6, i64 0, i64 %155
  %157 = load i32, i32* %1, align 4
  %158 = sext i32 %157 to i64
  %159 = getelementptr inbounds [100 x i32], [100 x i32]* %156, i64 0, i64 %158
  %160 = load i32, i32* %159, align 4
  %161 = call i32 (i8*, ...) @printf(i8* getelementptr inbounds ([4 x i8], [4 x i8]* @.str.2, i64 0, i64 0), i32 %160)
  %162 = load i32, i32* %5, align 4
  %163 = add nsw i32 %162, 1
  store i32 %163, i32* %5, align 4
  %164 = load i32, i32* %5, align 4
  %165 = load i32, i32* %7, align 4
  %166 = icmp eq i32 %164, %165
  br i1 %166, label %167, label %168

167:                                              ; preds = %153
  br label %172

168:                                              ; preds = %153
  br label %169

169:                                              ; preds = %168
  %170 = load i32, i32* %2, align 4
  %171 = add nsw i32 %170, -1
  store i32 %171, i32* %2, align 4
  br label %148

172:                                              ; preds = %167, %148
  %173 = load i32, i32* %5, align 4
  %174 = load i32, i32* %7, align 4
  %175 = icmp eq i32 %173, %174
  br i1 %175, label %176, label %177

176:                                              ; preds = %172
  br label %181

177:                                              ; preds = %172
  br label %178

178:                                              ; preds = %177
  %179 = load i32, i32* %1, align 4
  %180 = add nsw i32 %179, 1
  store i32 %180, i32* %1, align 4
  br label %37

181:                                              ; preds = %176, %142, %106, %69
  ret void
}

declare dso_local i32 @__isoc99_scanf(i8*, ...) #1

declare dso_local i32 @printf(i8*, ...) #1


!llvm.module.flags = !{!0}
!llvm.ident = !{!1}

!0 = !{i32 1, !"wchar_size", i32 4}
!1 = !{!"clang version 10.0.0-4ubuntu1 "}
